target datalayout = "e-m:e-p270:32:32-p271:32:32-p272:64:64-i64:64-i128:128-f80:128-n8:16:32:64-S128"
target triple = "x86_64-pc-linux-gnu"

%"class.tbb::detail::r1::rml::private_worker" = type { %"struct.std::atomic", ptr, ptr, i64, %"class.tbb::detail::r1::rml::internal::thread_monitor", i64, ptr }
%"struct.std::atomic" = type { i32 }
%"class.tbb::detail::r1::rml::internal::thread_monitor" = type { %"struct.std::atomic.0", %"class.tbb::detail::r1::binary_semaphore" }
%"struct.std::atomic.0" = type { %"struct.std::__atomic_base" }
%"struct.std::__atomic_base" = type { i8 }
%"class.tbb::detail::r1::binary_semaphore" = type { %"struct.std::atomic.1" }
%"struct.std::atomic.1" = type { %"struct.std::__atomic_base.2" }
%"struct.std::__atomic_base.2" = type { i32 }
%"class.tbb::detail::r1::rml::private_server" = type <{ %"class.tbb::detail::r1::rml::tbb_server", ptr, i32, [4 x i8], i64, %"struct.std::atomic.1", %"struct.std::atomic.1", ptr, %"struct.std::atomic.3", %"class.tbb::detail::d1::mutex", [7 x i8] }>
%"class.tbb::detail::r1::rml::tbb_server" = type { %"class.rml::server" }
%"class.rml::server" = type { %"class.rml::versioned_object" }
%"class.rml::versioned_object" = type { ptr }
%"struct.std::atomic.3" = type { %"struct.std::__atomic_base.4" }
%"struct.std::__atomic_base.4" = type { ptr }
%"class.tbb::detail::d1::mutex" = type { %"class.tbb::detail::d1::waitable_atomic" }
%"class.tbb::detail::d1::waitable_atomic" = type { %"struct.std::atomic.0" }
%"class.tbb::detail::d1::cache_aligned_allocator.5" = type { i8 }

@.str = private unnamed_addr constant [24 x i8] c"pthread_join has failed\00", align 1
@.str.1 = private unnamed_addr constant [26 x i8] c"pthread_detach has failed\00", align 1

; Function Attrs: inlinehint mustprogress sspstrong uwtable
define linkonce_odr void @_ZN3tbb6detail2r13rml8internal14thread_monitor5checkEiPKc(i32 noundef %0, ptr noundef %1) #1 comdat align 2 {
  %3 = alloca i32, align 4
  %4 = alloca ptr, align 8
  store i32 %0, ptr %3, align 4, !tbaa !7
  store ptr %1, ptr %4, align 8, !tbaa !9
  %5 = load i32, ptr %3, align 4, !tbaa !7
  %6 = icmp ne i32 %5, 0
  br i1 %6, label %7, label %10

7:                                                ; preds = %2
  %8 = load i32, ptr %3, align 4, !tbaa !7
  %9 = load ptr, ptr %4, align 8, !tbaa !9
  call void @_ZN3tbb6detail2r113handle_perrorEiPKc(i32 noundef %8, ptr noundef %9)
  br label %10

10:                                               ; preds = %7, %2
  ret void
}

; Function Attrs: inlinehint mustprogress nounwind sspstrong uwtable
define internal noundef i32 @_ZN3tbb6detail2r1L16futex_wakeup_oneEPv(ptr noundef %0) #8 {
  %2 = alloca ptr, align 8
  %3 = alloca i32, align 4
  store ptr %0, ptr %2, align 8, !tbaa !12
  call void @llvm.lifetime.start.p0(i64 4, ptr %3) #11
  %4 = load ptr, ptr %2, align 8, !tbaa !12
  %5 = call i64 (i64, ...) @syscall(i64 noundef 202, ptr noundef %4, i32 noundef 129, i32 noundef 1, ptr noundef null, ptr noundef null, i32 noundef 0) #11
  %6 = trunc i64 %5 to i32
  store i32 %6, ptr %3, align 4, !tbaa !7
  %7 = load i32, ptr %3, align 4, !tbaa !7
  call void @llvm.lifetime.end.p0(i64 4, ptr %3) #11
  ret i32 %7
}

; Function Attrs: alwaysinline mustprogress nounwind sspstrong uwtable
define linkonce_odr noundef i32 @_ZNSt13__atomic_baseIiE8exchangeEiSt12memory_order(ptr noundef nonnull align 4 dereferenceable(4) %0, i32 noundef %1, i32 noundef %2) #7 comdat align 2 {
  %4 = alloca ptr, align 8
  %5 = alloca i32, align 4
  %6 = alloca i32, align 4
  %7 = alloca i32, align 4
  %8 = alloca i32, align 4
  store ptr %0, ptr %4, align 8, !tbaa !59
  store i32 %1, ptr %5, align 4, !tbaa !7
  store i32 %2, ptr %6, align 4, !tbaa !44
  %9 = load ptr, ptr %4, align 8
  %10 = getelementptr inbounds nuw %"struct.std::__atomic_base.2", ptr %9, i32 0, i32 0
  %11 = load i32, ptr %6, align 4, !tbaa !44
  %12 = load i32, ptr %5, align 4, !tbaa !7
  store i32 %12, ptr %7, align 4, !tbaa !7
  switch i32 %11, label %13 [
    i32 1, label %16
    i32 2, label %16
    i32 3, label %19
    i32 4, label %22
    i32 5, label %25
  ]

13:                                               ; preds = %3
  %14 = load i32, ptr %7, align 4
  %15 = atomicrmw xchg ptr %10, i32 %14 monotonic, align 4
  store i32 %15, ptr %8, align 4
  br label %28

16:                                               ; preds = %3, %3
  %17 = load i32, ptr %7, align 4
  %18 = atomicrmw xchg ptr %10, i32 %17 acquire, align 4
  store i32 %18, ptr %8, align 4
  br label %28

19:                                               ; preds = %3
  %20 = load i32, ptr %7, align 4
  %21 = atomicrmw xchg ptr %10, i32 %20 release, align 4
  store i32 %21, ptr %8, align 4
  br label %28

22:                                               ; preds = %3
  %23 = load i32, ptr %7, align 4
  %24 = atomicrmw xchg ptr %10, i32 %23 acq_rel, align 4
  store i32 %24, ptr %8, align 4
  br label %28

25:                                               ; preds = %3
  %26 = load i32, ptr %7, align 4
  %27 = atomicrmw xchg ptr %10, i32 %26 seq_cst, align 4
  store i32 %27, ptr %8, align 4
  br label %28

28:                                               ; preds = %25, %22, %19, %16, %13
  %29 = load i32, ptr %8, align 4, !tbaa !7
  ret i32 %29
}

; Function Attrs: alwaysinline mustprogress nounwind sspstrong uwtable
define linkonce_odr noundef zeroext i1 @_ZNSt13__atomic_baseIbE8exchangeEbSt12memory_order(ptr noundef nonnull align 1 dereferenceable(1) %0, i1 noundef zeroext %1, i32 noundef %2) #7 comdat align 2 {
  %4 = alloca ptr, align 8
  %5 = alloca i8, align 1
  %6 = alloca i32, align 4
  %7 = alloca i8, align 1
  %8 = alloca i8, align 1
  store ptr %0, ptr %4, align 8, !tbaa !102
  %9 = zext i1 %1 to i8
  store i8 %9, ptr %5, align 1, !tbaa !37
  store i32 %2, ptr %6, align 4, !tbaa !44
  %10 = load ptr, ptr %4, align 8
  %11 = getelementptr inbounds nuw %"struct.std::__atomic_base", ptr %10, i32 0, i32 0
  %12 = load i32, ptr %6, align 4, !tbaa !44
  %13 = load i8, ptr %5, align 1, !tbaa !37, !range !38, !noundef !39
  %14 = trunc i8 %13 to i1
  %15 = zext i1 %14 to i8
  store i8 %15, ptr %7, align 1, !tbaa !37
  switch i32 %12, label %16 [
    i32 1, label %19
    i32 2, label %19
    i32 3, label %22
    i32 4, label %25
    i32 5, label %28
  ]

16:                                               ; preds = %3
  %17 = load i8, ptr %7, align 1
  %18 = atomicrmw xchg ptr %11, i8 %17 monotonic, align 1
  store i8 %18, ptr %8, align 1
  br label %31

19:                                               ; preds = %3, %3
  %20 = load i8, ptr %7, align 1
  %21 = atomicrmw xchg ptr %11, i8 %20 acquire, align 1
  store i8 %21, ptr %8, align 1
  br label %31

22:                                               ; preds = %3
  %23 = load i8, ptr %7, align 1
  %24 = atomicrmw xchg ptr %11, i8 %23 release, align 1
  store i8 %24, ptr %8, align 1
  br label %31

25:                                               ; preds = %3
  %26 = load i8, ptr %7, align 1
  %27 = atomicrmw xchg ptr %11, i8 %26 acq_rel, align 1
  store i8 %27, ptr %8, align 1
  br label %31

28:                                               ; preds = %3
  %29 = load i8, ptr %7, align 1
  %30 = atomicrmw xchg ptr %11, i8 %29 seq_cst, align 1
  store i8 %30, ptr %8, align 1
  br label %31

31:                                               ; preds = %28, %25, %22, %19, %16
  %32 = load i8, ptr %8, align 1, !tbaa !37, !range !38, !noundef !39
  %33 = trunc i8 %32 to i1
  ret i1 %33
}

; Function Attrs: mustprogress sspstrong uwtable
define void @_ZN3tbb6detail2r13rml8internal14thread_monitor13detach_threadEm(i64 noundef %0) #0 align 2 {
  %2 = alloca i64, align 8
  store i64 %0, ptr %2, align 8, !tbaa !3
  %3 = load i64, ptr %2, align 8, !tbaa !3
  %4 = call i32 @pthread_detach(i64 noundef %3) #11
  call void @_ZN3tbb6detail2r13rml8internal14thread_monitor5checkEiPKc(i32 noundef %4, ptr noundef @.str.1)
  ret void
}

; Function Attrs: mustprogress sspstrong uwtable
define void @_ZN3tbb6detail2r13rml8internal14thread_monitor4joinEm(i64 noundef %0) #0 align 2 {
  %2 = alloca i64, align 8
  store i64 %0, ptr %2, align 8, !tbaa !3
  %3 = load i64, ptr %2, align 8, !tbaa !3
  %4 = call i32 @pthread_join(i64 noundef %3, ptr noundef null)
  call void @_ZN3tbb6detail2r13rml8internal14thread_monitor5checkEiPKc(i32 noundef %4, ptr noundef @.str)
  ret void
}

; Function Attrs: mustprogress sspstrong uwtable
define linkonce_odr void @_ZN3tbb6detail2r116binary_semaphore1VEv(ptr noundef nonnull align 4 dereferenceable(4) %0) #0 comdat align 2 {
  %2 = alloca ptr, align 8
  store ptr %0, ptr %2, align 8, !tbaa !100
  %3 = load ptr, ptr %2, align 8
  %4 = getelementptr inbounds nuw %"class.tbb::detail::r1::binary_semaphore", ptr %3, i32 0, i32 0
  %5 = call noundef i32 @_ZNSt13__atomic_baseIiE8exchangeEiSt12memory_order(ptr noundef nonnull align 4 dereferenceable(4) %4, i32 noundef 0, i32 noundef 5) #11
  %6 = icmp eq i32 %5, 2
  br i1 %6, label %7, label %10

7:                                                ; preds = %1
  %8 = getelementptr inbounds nuw %"class.tbb::detail::r1::binary_semaphore", ptr %3, i32 0, i32 0
  %9 = call noundef i32 @_ZN3tbb6detail2r1L16futex_wakeup_oneEPv(ptr noundef %8)
  br label %10

10:                                               ; preds = %7, %1
  ret void
}

; Function Attrs: mustprogress nounwind sspstrong uwtable
define linkonce_odr noundef zeroext i1 @_ZNSt6atomicIbE8exchangeEbSt12memory_order(ptr noundef nonnull align 1 dereferenceable(1) %0, i1 noundef zeroext %1, i32 noundef %2) #5 comdat align 2 {
  %4 = alloca ptr, align 8
  %5 = alloca i8, align 1
  %6 = alloca i32, align 4
  store ptr %0, ptr %4, align 8, !tbaa !98
  %7 = zext i1 %1 to i8
  store i8 %7, ptr %5, align 1, !tbaa !37
  store i32 %2, ptr %6, align 4, !tbaa !44
  %8 = load ptr, ptr %4, align 8
  %9 = getelementptr inbounds nuw %"struct.std::atomic.0", ptr %8, i32 0, i32 0
  %10 = load i8, ptr %5, align 1, !tbaa !37, !range !38, !noundef !39
  %11 = trunc i8 %10 to i1
  %12 = load i32, ptr %6, align 4, !tbaa !44
  %13 = call noundef zeroext i1 @_ZNSt13__atomic_baseIbE8exchangeEbSt12memory_order(ptr noundef nonnull align 1 dereferenceable(1) %9, i1 noundef zeroext %11, i32 noundef %12) #11
  ret i1 %13
}

; Function Attrs: mustprogress sspstrong uwtable
define linkonce_odr void @_ZN3tbb6detail2d123cache_aligned_allocatorINS0_2r13rml14private_serverEE10deallocateEPS5_m(ptr noundef nonnull align 1 dereferenceable(1) %0, ptr noundef %1, i64 noundef %2) #0 comdat align 2 {
  %4 = alloca ptr, align 8
  %5 = alloca ptr, align 8
  %6 = alloca i64, align 8
  store ptr %0, ptr %4, align 8, !tbaa !95
  store ptr %1, ptr %5, align 8, !tbaa !46
  store i64 %2, ptr %6, align 8, !tbaa !3
  %7 = load ptr, ptr %5, align 8, !tbaa !46
  call void @_ZN3tbb6detail2r124cache_aligned_deallocateEPv(ptr noundef %7)
  ret void
}

; Function Attrs: mustprogress nounwind sspstrong uwtable
define linkonce_odr noundef i32 @_ZNSt13__atomic_baseIiEmmEv(ptr noundef nonnull align 4 dereferenceable(4) %0) #5 comdat align 2 {
  %2 = alloca ptr, align 8
  %3 = alloca i32, align 4
  %4 = alloca i32, align 4
  store ptr %0, ptr %2, align 8, !tbaa !59
  %5 = load ptr, ptr %2, align 8
  %6 = getelementptr inbounds nuw %"struct.std::__atomic_base.2", ptr %5, i32 0, i32 0
  store i32 1, ptr %3, align 4, !tbaa !7
  %7 = load i32, ptr %3, align 4
  %8 = atomicrmw sub ptr %6, i32 %7 seq_cst, align 4
  %9 = sub i32 %8, %7
  store i32 %9, ptr %4, align 4
  %10 = load i32, ptr %4, align 4, !tbaa !7
  ret i32 %10
}

; Function Attrs: mustprogress sspstrong uwtable
define void @_ZN3tbb6detail2r13rml14private_worker14release_handleEmb(i64 noundef %0, i1 noundef zeroext %1) #0 align 2 {
  %3 = alloca i64, align 8
  %4 = alloca i8, align 1
  store i64 %0, ptr %3, align 8, !tbaa !3
  %5 = zext i1 %1 to i8
  store i8 %5, ptr %4, align 1, !tbaa !37
  %6 = load i8, ptr %4, align 1, !tbaa !37, !range !38, !noundef !39
  %7 = trunc i8 %6 to i1
  br i1 %7, label %8, label %10

8:                                                ; preds = %2
  %9 = load i64, ptr %3, align 8, !tbaa !3
  call void @_ZN3tbb6detail2r13rml8internal14thread_monitor4joinEm(i64 noundef %9)
  br label %12

10:                                               ; preds = %2
  %11 = load i64, ptr %3, align 8, !tbaa !3
  call void @_ZN3tbb6detail2r13rml8internal14thread_monitor13detach_threadEm(i64 noundef %11)
  br label %12

12:                                               ; preds = %10, %8
  ret void
}

; Function Attrs: inlinehint mustprogress sspstrong uwtable
define linkonce_odr void @_ZN3tbb6detail2r13rml8internal14thread_monitor6notifyEv(ptr noundef nonnull align 4 dereferenceable(8) %0) #1 comdat align 2 {
  %2 = alloca ptr, align 8
  store ptr %0, ptr %2, align 8, !tbaa !57
  %3 = load ptr, ptr %2, align 8
  %4 = getelementptr inbounds nuw %"class.tbb::detail::r1::rml::internal::thread_monitor", ptr %3, i32 0, i32 0
  %5 = call noundef zeroext i1 @_ZNSt6atomicIbE8exchangeEbSt12memory_order(ptr noundef nonnull align 1 dereferenceable(1) %4, i1 noundef zeroext true, i32 noundef 3) #11
  br i1 %5, label %8, label %6

6:                                                ; preds = %1
  %7 = getelementptr inbounds nuw %"class.tbb::detail::r1::rml::internal::thread_monitor", ptr %3, i32 0, i32 1
  call void @_ZN3tbb6detail2r116binary_semaphore1VEv(ptr noundef nonnull align 4 dereferenceable(4) %7)
  br label %8

8:                                                ; preds = %6, %1
  ret void
}

; Function Attrs: mustprogress sspstrong uwtable
define linkonce_odr void @_ZN3tbb6detail2r13rml14private_server17remove_server_refEv(ptr noundef nonnull align 8 dereferenceable(57) %0) #0 comdat align 2 {
  %2 = alloca ptr, align 8
  %3 = alloca %"class.tbb::detail::d1::cache_aligned_allocator.5", align 1
  store ptr %0, ptr %2, align 8, !tbaa !46
  %4 = load ptr, ptr %2, align 8
  %5 = getelementptr inbounds nuw %"class.tbb::detail::r1::rml::private_server", ptr %4, i32 0, i32 6
  %6 = call noundef i32 @_ZNSt13__atomic_baseIiEmmEv(ptr noundef nonnull align 4 dereferenceable(4) %5) #11
  %7 = icmp eq i32 %6, 0
  br i1 %7, label %8, label %17

8:                                                ; preds = %1
  %9 = getelementptr inbounds nuw %"class.tbb::detail::r1::rml::private_server", ptr %4, i32 0, i32 1
  %10 = load ptr, ptr %9, align 8, !tbaa !47
  %11 = load ptr, ptr %10, align 8, !tbaa !31
  %12 = getelementptr inbounds ptr, ptr %11, i64 6
  %13 = load ptr, ptr %12, align 8
  call void %13(ptr noundef nonnull align 8 dereferenceable(8) %10)
  %14 = load ptr, ptr %4, align 8, !tbaa !31
  %15 = getelementptr inbounds ptr, ptr %14, i64 0
  %16 = load ptr, ptr %15, align 8
  call void %16(ptr noundef nonnull align 8 dereferenceable(57) %4) #11
  call void @llvm.lifetime.start.p0(i64 1, ptr %3) #11
  call void @_ZN3tbb6detail2d123cache_aligned_allocatorINS0_2r13rml14private_serverEE10deallocateEPS5_m(ptr noundef nonnull align 1 dereferenceable(1) %3, ptr noundef %4, i64 noundef 1)
  call void @llvm.lifetime.end.p0(i64 1, ptr %3) #11
  br label %17

17:                                               ; preds = %8, %1
  ret void
}

; Function Attrs: mustprogress nounwind sspstrong uwtable
define linkonce_odr noundef i32 @_ZNSt6atomicIN3tbb6detail2r13rml14private_worker7state_tEE8exchangeES5_St12memory_order(ptr noundef nonnull align 4 dereferenceable(4) %0, i32 noundef %1, i32 noundef %2) #5 comdat align 2 {
  %4 = alloca ptr, align 8
  %5 = alloca i32, align 4
  %6 = alloca i32, align 4
  %7 = alloca [4 x i8], align 4
  %8 = alloca ptr, align 8
  store ptr %0, ptr %4, align 8, !tbaa !42
  store i32 %1, ptr %5, align 4, !tbaa !40
  store i32 %2, ptr %6, align 4, !tbaa !44
  %9 = load ptr, ptr %4, align 8
  call void @llvm.lifetime.start.p0(i64 4, ptr %7) #11
  call void @llvm.lifetime.start.p0(i64 8, ptr %8) #11
  %10 = getelementptr inbounds [4 x i8], ptr %7, i64 0, i64 0
  store ptr %10, ptr %8, align 8, !tbaa !12
  %11 = getelementptr inbounds nuw %"struct.std::atomic", ptr %9, i32 0, i32 0
  %12 = load i32, ptr %6, align 4, !tbaa !44
  %13 = load ptr, ptr %8, align 8, !tbaa !12
  switch i32 %12, label %14 [
    i32 1, label %17
    i32 2, label %17
    i32 3, label %20
    i32 4, label %23
    i32 5, label %26
  ]

14:                                               ; preds = %3
  %15 = load i32, ptr %5, align 4
  %16 = atomicrmw xchg ptr %11, i32 %15 monotonic, align 4
  store i32 %16, ptr %13, align 4
  br label %29

17:                                               ; preds = %3, %3
  %18 = load i32, ptr %5, align 4
  %19 = atomicrmw xchg ptr %11, i32 %18 acquire, align 4
  store i32 %19, ptr %13, align 4
  br label %29

20:                                               ; preds = %3
  %21 = load i32, ptr %5, align 4
  %22 = atomicrmw xchg ptr %11, i32 %21 release, align 4
  store i32 %22, ptr %13, align 4
  br label %29

23:                                               ; preds = %3
  %24 = load i32, ptr %5, align 4
  %25 = atomicrmw xchg ptr %11, i32 %24 acq_rel, align 4
  store i32 %25, ptr %13, align 4
  br label %29

26:                                               ; preds = %3
  %27 = load i32, ptr %5, align 4
  %28 = atomicrmw xchg ptr %11, i32 %27 seq_cst, align 4
  store i32 %28, ptr %13, align 4
  br label %29

29:                                               ; preds = %26, %23, %20, %17, %14
  %30 = load ptr, ptr %8, align 8, !tbaa !12
  %31 = load i32, ptr %30, align 4, !tbaa !40
  call void @llvm.lifetime.end.p0(i64 8, ptr %8) #11
  call void @llvm.lifetime.end.p0(i64 4, ptr %7) #11
  ret i32 %31
}

; Function Attrs: mustprogress sspstrong uwtable
define void @_ZN3tbb6detail2r13rml14private_worker14start_shutdownEv(ptr noundef nonnull align 8 dereferenceable(56) %0) #0 align 2 {
  %2 = alloca ptr, align 8
  %3 = alloca i32, align 4
  store ptr %0, ptr %2, align 8, !tbaa !13
  %4 = load ptr, ptr %2, align 8
  call void @llvm.lifetime.start.p0(i64 4, ptr %3) #11
  %5 = getelementptr inbounds nuw %"class.tbb::detail::r1::rml::private_worker", ptr %4, i32 0, i32 0
  %6 = call noundef i32 @_ZNSt6atomicIN3tbb6detail2r13rml14private_worker7state_tEE8exchangeES5_St12memory_order(ptr noundef nonnull align 4 dereferenceable(4) %5, i32 noundef 3, i32 noundef 4) #11
  store i32 %6, ptr %3, align 4, !tbaa !40
  %7 = load i32, ptr %3, align 4, !tbaa !40
  %8 = icmp eq i32 %7, 0
  br i1 %8, label %9, label %12

9:                                                ; preds = %1
  %10 = getelementptr inbounds nuw %"class.tbb::detail::r1::rml::private_worker", ptr %4, i32 0, i32 1
  %11 = load ptr, ptr %10, align 8, !tbaa !17
  call void @_ZN3tbb6detail2r13rml14private_server17remove_server_refEv(ptr noundef nonnull align 8 dereferenceable(57) %11)
  br label %23

12:                                               ; preds = %1
  %13 = getelementptr inbounds nuw %"class.tbb::detail::r1::rml::private_worker", ptr %4, i32 0, i32 4
  call void @_ZN3tbb6detail2r13rml8internal14thread_monitor6notifyEv(ptr noundef nonnull align 4 dereferenceable(8) %13)
  %14 = load i32, ptr %3, align 4, !tbaa !40
  %15 = icmp eq i32 %14, 2
  br i1 %15, label %16, label %22

16:                                               ; preds = %12
  %17 = getelementptr inbounds nuw %"class.tbb::detail::r1::rml::private_worker", ptr %4, i32 0, i32 5
  %18 = load i64, ptr %17, align 8, !tbaa !41
  %19 = getelementptr inbounds nuw %"class.tbb::detail::r1::rml::private_worker", ptr %4, i32 0, i32 2
  %20 = load ptr, ptr %19, align 8, !tbaa !30
  %21 = call noundef zeroext i1 @_ZN3tbb6detail2r18governor24does_client_join_workersERKNS1_3rml10tbb_clientE(ptr noundef nonnull align 8 dereferenceable(8) %20)
  call void @_ZN3tbb6detail2r13rml14private_worker14release_handleEmb(i64 noundef %18, i1 noundef zeroext %21)
  br label %22

22:                                               ; preds = %16, %12
  br label %23

23:                                               ; preds = %22, %9
  call void @llvm.lifetime.end.p0(i64 4, ptr %3) #11
  ret void
}