; Function Attrs: mustprogress sspstrong uwtable
define void @_ZN3tbb6detail2r13rml14private_worker14start_shutdownEv(ptr noundef nonnull align 8 dereferenceable(56) %0) local_unnamed_addr #0 align 2 {
  %2 = atomicrmw xchg ptr %0, i32 3 acq_rel, align 4
  %3 = icmp eq i32 %2, 0
  br i1 %3, label %4, label %18

4:                                                ; preds = %1
  %5 = getelementptr inbounds nuw i8, ptr %0, i64 8
  %6 = load ptr, ptr %5, align 8, !tbaa !3
  %7 = getelementptr inbounds nuw i8, ptr %6, i64 36
  %8 = atomicrmw sub ptr %7, i32 1 seq_cst, align 4
  %9 = icmp eq i32 %8, 1
  br i1 %9, label %10, label %_ZN3tbb6detail2r13rml14private_server17remove_server_refEv.exit

10:                                               ; preds = %4
  %11 = getelementptr inbounds nuw i8, ptr %6, i64 8
  %12 = load ptr, ptr %11, align 8, !tbaa !30
  %13 = load ptr, ptr %12, align 8, !tbaa !23
  %14 = getelementptr inbounds nuw i8, ptr %13, i64 48
  %15 = load ptr, ptr %14, align 8
  tail call void %15(ptr noundef nonnull align 8 dereferenceable(8) %12)
  %16 = load ptr, ptr %6, align 8, !tbaa !23
  %17 = load ptr, ptr %16, align 8
  tail call void %17(ptr noundef nonnull align 8 dereferenceable(57) %6) #10
  tail call void @_ZN3tbb6detail2r124cache_aligned_deallocateEPv(ptr noundef nonnull align 8 dereferenceable(57) %6)
  br label %_ZN3tbb6detail2r13rml14private_server17remove_server_refEv.exit

18:                                               ; preds = %1
  %19 = getelementptr inbounds nuw i8, ptr %0, i64 32
  %20 = atomicrmw xchg ptr %19, i8 1 release, align 1
  %21 = trunc i8 %20 to i1
  br i1 %21, label %_ZN3tbb6detail2r13rml8internal14thread_monitor6notifyEv.exit, label %22

22:                                               ; preds = %18
  %23 = getelementptr inbounds nuw i8, ptr %0, i64 36
  %24 = atomicrmw xchg ptr %23, i32 0 seq_cst, align 4
  %25 = icmp eq i32 %24, 2
  br i1 %25, label %26, label %_ZN3tbb6detail2r13rml8internal14thread_monitor6notifyEv.exit

26:                                               ; preds = %22
  %27 = tail call i64 (i64, ...) @syscall(i64 noundef 202, ptr noundef nonnull align 4 dereferenceable(4) %23, i32 noundef 129, i32 noundef 1, ptr noundef null, ptr noundef null, i32 noundef 0) #10
  br label %_ZN3tbb6detail2r13rml8internal14thread_monitor6notifyEv.exit

_ZN3tbb6detail2r13rml8internal14thread_monitor6notifyEv.exit: ; preds = %18, %22, %26
  %28 = icmp eq i32 %2, 2
  br i1 %28, label %29, label %_ZN3tbb6detail2r13rml14private_server17remove_server_refEv.exit

29:                                               ; preds = %_ZN3tbb6detail2r13rml8internal14thread_monitor6notifyEv.exit
  %30 = getelementptr inbounds nuw i8, ptr %0, i64 40
  %31 = load i64, ptr %30, align 8, !tbaa !40
  %32 = getelementptr inbounds nuw i8, ptr %0, i64 16
  %33 = load ptr, ptr %32, align 8, !tbaa !22
  %34 = tail call noundef zeroext i1 @_ZN3tbb6detail2r18governor24does_client_join_workersERKNS1_3rml10tbb_clientE(ptr noundef nonnull align 8 dereferenceable(8) %33)
  br i1 %34, label %35, label %38

35:                                               ; preds = %29
  %36 = tail call i32 @pthread_join(i64 noundef %31, ptr noundef null)
  %.not.i.i.i = icmp eq i32 %36, 0
  br i1 %.not.i.i.i, label %_ZN3tbb6detail2r13rml14private_server17remove_server_refEv.exit, label %37

37:                                               ; preds = %35
  tail call void @_ZN3tbb6detail2r113handle_perrorEiPKc(i32 noundef %36, ptr noundef nonnull @.str)
  br label %_ZN3tbb6detail2r13rml14private_server17remove_server_refEv.exit

38:                                               ; preds = %29
  %39 = tail call i32 @pthread_detach(i64 noundef %31) #10
  %.not.i.i3.i = icmp eq i32 %39, 0
  br i1 %.not.i.i3.i, label %_ZN3tbb6detail2r13rml14private_server17remove_server_refEv.exit, label %40

40:                                               ; preds = %38
  tail call void @_ZN3tbb6detail2r113handle_perrorEiPKc(i32 noundef %39, ptr noundef nonnull @.str.1)
  br label %_ZN3tbb6detail2r13rml14private_server17remove_server_refEv.exit

_ZN3tbb6detail2r13rml14private_server17remove_server_refEv.exit: ; preds = %40, %38, %37, %35, %10, %4, %_ZN3tbb6detail2r13rml8internal14thread_monitor6notifyEv.exit
  ret void
}